CCS PCM C Compiler, Version 5.007, 61971               25-Mar-21 17:42

               Filename:   C:\Users\canbe\OneDrive\Masaüstü\PIC_Programming_CCS(C)\External_Interrupt\PIC_C_Compiler\External_Interrupt.lst

               ROM used:   149 words (2%)
                           Largest free fragment is 2048
               RAM used:   13 (4%) at main() level
                           15 (4%) worst case
               Stack used: 1 locations (0 in main + 1 for interrupts)
               Stack size: 8

*
0000:  MOVLW  00
0001:  MOVWF  0A
0002:  GOTO   06E
0003:  NOP
0004:  MOVWF  7F
0005:  SWAPF  03,W
0006:  CLRF   03
0007:  MOVWF  21
0008:  MOVF   0A,W
0009:  MOVWF  20
000A:  CLRF   0A
000B:  MOVF   04,W
000C:  MOVWF  22
000D:  MOVF   77,W
000E:  MOVWF  23
000F:  MOVF   78,W
0010:  MOVWF  24
0011:  MOVF   79,W
0012:  MOVWF  25
0013:  MOVF   7A,W
0014:  MOVWF  26
0015:  BCF    03.7
0016:  BCF    03.5
0017:  BTFSS  0B.4
0018:  GOTO   01B
0019:  BTFSC  0B.1
001A:  GOTO   02C
001B:  MOVF   22,W
001C:  MOVWF  04
001D:  MOVF   23,W
001E:  MOVWF  77
001F:  MOVF   24,W
0020:  MOVWF  78
0021:  MOVF   25,W
0022:  MOVWF  79
0023:  MOVF   26,W
0024:  MOVWF  7A
0025:  MOVF   20,W
0026:  MOVWF  0A
0027:  SWAPF  21,W
0028:  MOVWF  03
0029:  SWAPF  7F,F
002A:  SWAPF  7F,W
002B:  RETFIE
002C:  BCF    0A.3
002D:  BCF    0A.4
002E:  GOTO   043
.................... /****************************************************************************** 
.................... *Project Name: External Inteerrupt Application with Button and Led 
.................... *Engineer: Canberk SAHIN 
.................... *Project Microcontroller: PIC16F877 
.................... *Version: V1 
.................... *Create Date: 22.03.2021 
.................... *Update Date: 22.03.2021 
.................... *University: Bursa Technical University 
.................... *Revision: -  
.................... ******************************************************************************/ 
.................... #include <External_Interrupt.h> 
.................... #include <16F877.h> 
.................... //////// Standard Header file for the PIC16F877 device //////////////// 
.................... #device PIC16F877 
....................  
.................... #list 
....................  
.................... #device ADC=16 
....................  
.................... #FUSES NOWDT                    //No Watch Dog Timer 
.................... #FUSES NOBROWNOUT               //No brownout reset 
.................... #FUSES NOLVP                    //No low voltage prgming, B3(PIC16) or B5(PIC18) used for I/O 
.................... #FUSES XT                       //Crystal or ceramic resonator (Xtal) 
.................... #FUSES NOPROTECT                //No protection against reading to ROM memory 
.................... #FUSES NOPUT                    //No Power Up Timer. Defines if PUT is not desired 
.................... #FUSES NOWRT                    //Program memory not write protected 
.................... #FUSES NODEBUG                  //No Debug mode for ICD 
.................... #FUSES NOCPD                    //No Code Protected Data. Used when protection of EEPROM memory is not requested 
....................  
.................... #use delay(crystal=20000000)    //Oscillator frequency used for the delay function 
002F:  MOVLW  29
0030:  MOVWF  04
0031:  BCF    03.7
0032:  MOVF   00,W
0033:  BTFSC  03.2
0034:  GOTO   042
0035:  MOVLW  06
0036:  MOVWF  78
0037:  CLRF   77
0038:  DECFSZ 77,F
0039:  GOTO   038
003A:  DECFSZ 78,F
003B:  GOTO   037
003C:  MOVLW  7B
003D:  MOVWF  77
003E:  DECFSZ 77,F
003F:  GOTO   03E
0040:  DECFSZ 00,F
0041:  GOTO   035
0042:  RETURN
....................  
.................... #use fast_io(b)                 //Port processing commands are valid for B port 
....................  
....................  
....................  
.................... //Define Global variables 
.................... int i; 
....................  
.................... //Define a External Interrupt Funciton 
.................... #int_ext     //External Interrupt (RB0-INT Interrupt) 
.................... void ext_interrupt(void) 
.................... { 
....................    output_high(pin_b1); //Making RB1 output pin "1" 
0043:  BSF    06.1
....................    delay_ms(1000);      //Wait 1 second 
0044:  MOVLW  04
0045:  MOVWF  28
0046:  MOVLW  FA
0047:  MOVWF  29
0048:  CALL   02F
0049:  DECFSZ 28,F
004A:  GOTO   046
....................    output_low(pin_b1);  //Making RB1 output pin "0" 
004B:  BCF    06.1
....................    delay_ms(3000);      //Wait 3 second 
004C:  MOVLW  0C
004D:  MOVWF  28
004E:  MOVLW  FA
004F:  MOVWF  29
0050:  CALL   02F
0051:  DECFSZ 28,F
0052:  GOTO   04E
....................     
....................    for(i=0; i<10;++i){ 
0053:  CLRF   27
0054:  MOVF   27,W
0055:  SUBLW  09
0056:  BTFSS  03.0
0057:  GOTO   06A
....................       output_high(pin_b1); //Making RB1 output pin "1" 
0058:  BSF    06.1
....................       delay_ms(500);      //Wait half second 
0059:  MOVLW  02
005A:  MOVWF  28
005B:  MOVLW  FA
005C:  MOVWF  29
005D:  CALL   02F
005E:  DECFSZ 28,F
005F:  GOTO   05B
....................       output_low(pin_b1);  //Making RB1 output pin "0" 
0060:  BCF    06.1
....................       delay_ms(500);      //Wait half second 
0061:  MOVLW  02
0062:  MOVWF  28
0063:  MOVLW  FA
0064:  MOVWF  29
0065:  CALL   02F
0066:  DECFSZ 28,F
0067:  GOTO   063
0068:  INCF   27,F
0069:  GOTO   054
....................    } 
006A:  BCF    0B.1
006B:  BCF    0A.3
006C:  BCF    0A.4
006D:  GOTO   01B
.................... } 
....................  
.................... void main() 
006E:  BSF    03.5
006F:  BSF    1F.0
0070:  BSF    1F.1
0071:  BSF    1F.2
0072:  BCF    1F.3
0073:  BCF    03.7
0074:  MOVLW  1F
0075:  ANDWF  03,F
.................... { 
....................    setup_psp(PSP_DISABLED);           //PSP unit is disabled   
0076:  BCF    09.4
....................    setup_timer_1(T1_DISABLED);        //T1 unit is disabled 
0077:  BCF    03.5
0078:  CLRF   10
....................    setup_timer_2(T2_DISABLED, 0, 1);  //T2 unit is disabled 
0079:  MOVLW  00
007A:  MOVWF  78
007B:  MOVWF  12
007C:  MOVLW  00
007D:  BSF    03.5
007E:  MOVWF  12
....................    setup_adc_ports(NO_ANALOGS);       //There is no analog input  
007F:  BSF    1F.0
0080:  BSF    1F.1
0081:  BSF    1F.2
0082:  BCF    1F.3
....................    setup_adc(ADC_OFF);                //ADC unit is disabled 
0083:  BCF    03.5
0084:  BCF    1F.0
....................    setup_CCP1(CCP_OFF);               //CCP1 unit is disabled. 
0085:  MOVLW  F0
0086:  ANDWF  17,F
....................    setup_CCP2(CCP_OFF);               //CCP2 unit is disabled. 
0087:  ANDWF  1D,F
....................     
....................    set_tris_b(0x01);           //RB1 pin is set as input 
0088:  MOVLW  01
0089:  BSF    03.5
008A:  MOVWF  06
....................    output_b(0x00);             //B port output is reset at first moment 
008B:  BCF    03.5
008C:  CLRF   06
....................     
....................    ext_int_edge(H_TO_L);       //External interrupt is enabled on falling edge 
008D:  BSF    03.5
008E:  BCF    01.6
....................    enable_interrupts(INT_EXT); //Enables INT_EX interrupt 
008F:  BCF    03.5
0090:  BSF    0B.4
....................    enable_interrupts(GLOBAL);  //Allows enabled interrupts 
0091:  MOVLW  C0
0092:  IORWF  0B,F
....................     
....................    while(TRUE) 
0093:  GOTO   093
....................      ;   //Null statement 
....................  
.................... } 
0094:  SLEEP

Configuration Fuses:
   Word  1: 3F3A   HS NOWDT NOPUT NOBROWNOUT NOLVP NOCPD NOWRT NODEBUG NOPROTECT
