CCS PCM C Compiler, Version 5.007, 61971               21-Mar-21 21:03

               Filename:   C:\Users\canbe\OneDrive\Masaüstü\PIC_Programming_CCS(C)\Display_Drive_74164_IC\PIC_C_Compiler\Display_Drive_74164_IC.lst

               ROM used:   115 words (1%)
                           Largest free fragment is 2048
               RAM used:   8 (2%) at main() level
                           9 (2%) worst case
               Stack used: 0 locations
               Stack size: 8

*
0000:  MOVLW  00
0001:  MOVWF  0A
0002:  GOTO   028
0003:  NOP
.................... /****************************************************************************** 
.................... *Project Name: Display Drive With 74164 IC(Integrated Circuit) 
.................... *Engineer: Canberk SAHIN 
.................... *Project Microcontroller: PIC16F877 
.................... *Version: V1 
.................... *Create Date: 20.03.2021 
.................... *Update Date: 20.03.2021 
.................... *University: Bursa Technical University 
.................... *Revision: -  
.................... ******************************************************************************/ 
.................... #include <Display_Drive_74164_IC.h> 
.................... #include <16F877.h> 
.................... //////// Standard Header file for the PIC16F877 device //////////////// 
.................... #device PIC16F877 
0004:  BCF    0A.0
0005:  BCF    0A.1
0006:  BCF    0A.2
0007:  ADDWF  02,F
0008:  RETLW  3F
0009:  RETLW  06
000A:  RETLW  5B
000B:  RETLW  4F
000C:  RETLW  66
000D:  RETLW  6D
000E:  RETLW  7C
000F:  RETLW  07
0010:  RETLW  7F
0011:  RETLW  6F
....................  
.................... #list 
....................  
.................... #device ADC=16 
....................  
.................... #FUSES NOWDT                    //No Watch Dog Timer 
.................... #FUSES NOBROWNOUT               //No brownout reset 
.................... #FUSES NOLVP                    //No low voltage prgming, B3(PIC16) or B5(PIC18) used for I/O 
.................... #FUSES XT                       //Crystal or ceramic resonator (Xtal) 
.................... #FUSES NOPROTECT                //No protection against reading to ROM memory 
.................... #FUSES NOPUT                    //No Power Up Timer. Defines if PUT is not desired 
.................... #FUSES NOWRT                    //Program memory not write protected 
.................... #FUSES NODEBUG                  //No Debug mode for ICD 
.................... #FUSES NOCPD                    //No Code Protected Data. Used when protection of EEPROM memory is not requested 
....................  
.................... #use delay(crystal=20000000)   //Oscillator frequency used for the delay function 
0012:  MOVLW  23
0013:  MOVWF  04
0014:  BCF    03.7
0015:  MOVF   00,W
0016:  BTFSC  03.2
0017:  GOTO   025
0018:  MOVLW  06
0019:  MOVWF  78
001A:  CLRF   77
001B:  DECFSZ 77,F
001C:  GOTO   01B
001D:  DECFSZ 78,F
001E:  GOTO   01A
001F:  MOVLW  7B
0020:  MOVWF  77
0021:  DECFSZ 77,F
0022:  GOTO   021
0023:  DECFSZ 00,F
0024:  GOTO   018
0025:  BCF    0A.3
0026:  BCF    0A.4
0027:  GOTO   06D (RETURN)
....................  
.................... #use fast_io(b)                 //Port processing commands are valid for B port 
....................  
....................  
....................  
.................... //Define Macros 
.................... #define  data   pin_b0   //data name is assigned to pin_b0 
.................... #define  clock  pin_b1   //clock name is assigned to pin_b1 
....................  
.................... /*Data values for common cathode display*/ 
.................... const int digit[10]={0x3F, 0x06, 0x5B, 0x4F, 0x66, 0x6D, 0x7C, 0x07, 0x7F, 0x6F}; 
....................  
.................... //Define global variable 
.................... char i=0, j=0; //Becasuse char type is 8 bit 
....................  
.................... void main() 
0028:  CLRF   20
0029:  CLRF   21
002A:  BSF    03.5
002B:  BSF    1F.0
002C:  BSF    1F.1
002D:  BSF    1F.2
002E:  BCF    1F.3
002F:  BCF    03.7
0030:  MOVLW  1F
0031:  ANDWF  03,F
.................... { 
....................    setup_psp(PSP_DISABLED);           //PSP unit is disabled   
0032:  BCF    09.4
....................    setup_timer_1(T1_DISABLED);        //T1 unit is disabled 
0033:  BCF    03.5
0034:  CLRF   10
....................    setup_timer_2(T2_DISABLED, 0, 1);  //T2 unit is disabled 
0035:  MOVLW  00
0036:  MOVWF  78
0037:  MOVWF  12
0038:  MOVLW  00
0039:  BSF    03.5
003A:  MOVWF  12
....................    setup_adc_ports(NO_ANALOGS);       //There is no analog input  
003B:  BSF    1F.0
003C:  BSF    1F.1
003D:  BSF    1F.2
003E:  BCF    1F.3
....................    setup_adc(ADC_OFF);                //ADC unit is disabled 
003F:  BCF    03.5
0040:  BCF    1F.0
....................    setup_CCP1(CCP_OFF);               //CCP1 unit is disabled. 
0041:  MOVLW  F0
0042:  ANDWF  17,F
....................    setup_CCP2(CCP_OFF);               //CCP2 unit is disabled. 
0043:  ANDWF  1D,F
....................     
....................    set_tris_b(0x00);     //Port B is completely set as output 
0044:  MOVLW  00
0045:  BSF    03.5
0046:  MOVWF  06
....................    output_b(0x00);       //Port B ppins are completely reset 
0047:  BCF    03.5
0048:  CLRF   06
....................  
....................    while(TRUE) 
....................    { 
....................       for(i=0; i<10; ++i){ //For numbers 0-9 to be displayed on the display 
0049:  CLRF   20
004A:  MOVF   20,W
004B:  SUBLW  09
004C:  BTFSS  03.0
004D:  GOTO   071
....................          for(j=0; j<8; ++j){ //To send the values of the numbers as 8 bits through the b port 
004E:  CLRF   21
004F:  MOVF   21,W
0050:  SUBLW  07
0051:  BTFSS  03.0
0052:  GOTO   068
....................             output_bit(data, bit_test(digit[i], j)); //Bit value is sent to data pin 
0053:  MOVF   20,W
0054:  CALL   004
0055:  MOVWF  22
0056:  MOVWF  77
0057:  MOVF   21,W
0058:  MOVWF  78
0059:  BTFSC  03.2
005A:  GOTO   05F
005B:  BCF    03.0
005C:  RRF    77,F
005D:  DECFSZ 78,F
005E:  GOTO   05B
005F:  BTFSC  77.0
0060:  GOTO   063
0061:  BCF    06.0
0062:  GOTO   064
0063:  BSF    06.0
....................              
....................             //Sending the clock pulse 
....................             output_high(clock); // Clock signal is being made logic-1 
0064:  BSF    06.1
....................             output_low(clock);  // Clock signal is being made logic-0 (Trigger falling down) 
0065:  BCF    06.1
0066:  INCF   21,F
0067:  GOTO   04F
....................          } 
....................          delay_ms(500); //Delay 500 mili seconds 
0068:  MOVLW  02
0069:  MOVWF  22
006A:  MOVLW  FA
006B:  MOVWF  23
006C:  GOTO   012
006D:  DECFSZ 22,F
006E:  GOTO   06A
006F:  INCF   20,F
0070:  GOTO   04A
....................       } 
0071:  GOTO   049
....................    } 
.................... } 
0072:  SLEEP

Configuration Fuses:
   Word  1: 3F3A   HS NOWDT NOPUT NOBROWNOUT NOLVP NOCPD NOWRT NODEBUG NOPROTECT
