CCS PCM C Compiler, Version 5.007, 61971               25-Mar-21 23:00

               Filename:   C:\Users\canbe\OneDrive\Masaüstü\PIC_Programming_CCS(C)\Change_Interrupt_PortB\PIC_C_Compiler\Change_Interrupt_PortB.lst

               ROM used:   141 words (2%)
                           Largest free fragment is 2048
               RAM used:   12 (3%) at main() level
                           14 (4%) worst case
               Stack used: 1 locations (0 in main + 1 for interrupts)
               Stack size: 8

*
0000:  MOVLW  00
0001:  MOVWF  0A
0002:  GOTO   06A
0003:  NOP
0004:  MOVWF  7F
0005:  SWAPF  03,W
0006:  CLRF   03
0007:  MOVWF  21
0008:  MOVF   0A,W
0009:  MOVWF  20
000A:  CLRF   0A
000B:  MOVF   04,W
000C:  MOVWF  22
000D:  MOVF   77,W
000E:  MOVWF  23
000F:  MOVF   78,W
0010:  MOVWF  24
0011:  MOVF   79,W
0012:  MOVWF  25
0013:  MOVF   7A,W
0014:  MOVWF  26
0015:  BCF    03.7
0016:  BCF    03.5
0017:  BTFSS  0B.3
0018:  GOTO   01B
0019:  BTFSC  0B.0
001A:  GOTO   02C
001B:  MOVF   22,W
001C:  MOVWF  04
001D:  MOVF   23,W
001E:  MOVWF  77
001F:  MOVF   24,W
0020:  MOVWF  78
0021:  MOVF   25,W
0022:  MOVWF  79
0023:  MOVF   26,W
0024:  MOVWF  7A
0025:  MOVF   20,W
0026:  MOVWF  0A
0027:  SWAPF  21,W
0028:  MOVWF  03
0029:  SWAPF  7F,F
002A:  SWAPF  7F,W
002B:  RETFIE
002C:  BCF    0A.3
002D:  BCF    0A.4
002E:  GOTO   043
.................... /****************************************************************************** 
.................... *Project Name: Change interrupt at B4 ... B7 pins on B port 
.................... *Engineer: Canberk SAHIN 
.................... *Project Microcontroller: PIC16F877 
.................... *Version: V1 
.................... *Create Date: 23.03.2021 
.................... *Update Date: 23.03.2021 
.................... *University: Bursa Technical University 
.................... *Revision: -  
.................... ******************************************************************************/ 
.................... #include <Change_Interrupt_PortB.h> 
.................... #include <16F877.h> 
.................... //////// Standard Header file for the PIC16F877 device //////////////// 
.................... #device PIC16F877 
....................  
.................... #list 
....................  
.................... #device ADC=16 
....................  
.................... #FUSES NOWDT                    //No Watch Dog Timer 
.................... #FUSES NOBROWNOUT               //No brownout reset 
.................... #FUSES NOLVP                    //No low voltage prgming, B3(PIC16) or B5(PIC18) used for I/O 
.................... #FUSES XT                       //Crystal or ceramic resonator (Xtal) 
.................... #FUSES NOPROTECT                //No protection against reading to ROM memory 
.................... #FUSES NOPUT                    //No Power Up Timer. Defines if PUT is not desired 
.................... #FUSES NOWRT                    //Program memory not write protected 
.................... #FUSES NODEBUG                  //No Debug mode for ICD 
.................... #FUSES NOCPD                    //No Code Protected Data. Used when protection of EEPROM memory is not requested 
....................  
.................... #use delay(crystal=20000000)    //Oscillator frequency used for the delay function 
002F:  MOVLW  28
0030:  MOVWF  04
0031:  BCF    03.7
0032:  MOVF   00,W
0033:  BTFSC  03.2
0034:  GOTO   042
0035:  MOVLW  06
0036:  MOVWF  78
0037:  CLRF   77
0038:  DECFSZ 77,F
0039:  GOTO   038
003A:  DECFSZ 78,F
003B:  GOTO   037
003C:  MOVLW  7B
003D:  MOVWF  77
003E:  DECFSZ 77,F
003F:  GOTO   03E
0040:  DECFSZ 00,F
0041:  GOTO   035
0042:  RETURN
....................  
.................... #use fast_io(b)                 //Port processing commands are valid for B port 
....................  
....................  
....................  
....................  
.................... //Port B-> RB4, RB5, RB6 and RB7 pins change interrupt function 
.................... #int_RB 
.................... void change_b_interrupt(void) 
.................... { 
....................    if(input(pin_b4)){          //Reading RB4 pin input 
0043:  BTFSS  06.4
0044:  GOTO   04A
....................       delay_ms(10);            //Prevent button arc 
0045:  MOVLW  0A
0046:  MOVWF  28
0047:  CALL   02F
....................       output_high(pin_b0);     //RB0 pin output is logic-1 
0048:  BSF    06.0
....................    } 
0049:  GOTO   05E
....................        
....................    else if(input(pin_b5)){          //Reading RB5 pin input 
004A:  BTFSS  06.5
004B:  GOTO   051
....................       delay_ms(10);            //Prevent button arc 
004C:  MOVLW  0A
004D:  MOVWF  28
004E:  CALL   02F
....................       output_high(pin_b1);     //RB1 pin output is logic-1 
004F:  BSF    06.1
....................    } 
0050:  GOTO   05E
....................        
....................    else if(input(pin_b6)){          //Reading RB6 pin input 
0051:  BTFSS  06.6
0052:  GOTO   058
....................       delay_ms(10);            //Prevent button arc 
0053:  MOVLW  0A
0054:  MOVWF  28
0055:  CALL   02F
....................       output_high(pin_b2);     //RB2 pin output is logic-1 
0056:  BSF    06.2
....................    } 
0057:  GOTO   05E
....................        
....................    else if(input(pin_b7)){          //Reading RB7 pin input 
0058:  BTFSS  06.7
0059:  GOTO   05E
....................       delay_ms(10);            //Prevent button arc 
005A:  MOVLW  0A
005B:  MOVWF  28
005C:  CALL   02F
....................       output_high(pin_b3);     //RB3 pin output is logic-1 
005D:  BSF    06.3
....................    } 
....................        
....................    delay_ms(2000);            //2 second delay 
005E:  MOVLW  08
005F:  MOVWF  27
0060:  MOVLW  FA
0061:  MOVWF  28
0062:  CALL   02F
0063:  DECFSZ 27,F
0064:  GOTO   060
....................    output_b(0x00);            //Reset all port B 
0065:  CLRF   06
0066:  BCF    0B.0
0067:  BCF    0A.3
0068:  BCF    0A.4
0069:  GOTO   01B
.................... } 
....................  
.................... void main() 
006A:  BSF    03.5
006B:  BSF    1F.0
006C:  BSF    1F.1
006D:  BSF    1F.2
006E:  BCF    1F.3
006F:  BCF    03.7
0070:  MOVLW  1F
0071:  ANDWF  03,F
.................... { 
....................    setup_psp(PSP_DISABLED);           //PSP unit is disabled   
0072:  BCF    09.4
....................    setup_timer_1(T1_DISABLED);        //T1 unit is disabled 
0073:  BCF    03.5
0074:  CLRF   10
....................    setup_timer_2(T2_DISABLED, 0, 1);  //T2 unit is disabled 
0075:  MOVLW  00
0076:  MOVWF  78
0077:  MOVWF  12
0078:  MOVLW  00
0079:  BSF    03.5
007A:  MOVWF  12
....................    setup_adc_ports(NO_ANALOGS);       //There is no analog input  
007B:  BSF    1F.0
007C:  BSF    1F.1
007D:  BSF    1F.2
007E:  BCF    1F.3
....................    setup_adc(ADC_OFF);                //ADC unit is disabled 
007F:  BCF    03.5
0080:  BCF    1F.0
....................    setup_CCP1(CCP_OFF);               //CCP1 unit is disabled. 
0081:  MOVLW  F0
0082:  ANDWF  17,F
....................    setup_CCP2(CCP_OFF);               //CCP2 unit is disabled. 
0083:  ANDWF  1D,F
....................     
....................    set_tris_b(0xF0);           //RB7, RB6, RB5, RB4 input other pins output 
0084:  BSF    03.5
0085:  MOVWF  06
....................    output_b(0x00);             //B port output is reset at first moment 
0086:  BCF    03.5
0087:  CLRF   06
....................     
....................    enable_interrupts(INT_RB);  //Enables INT_RB interrupt 
0088:  BSF    0B.3
....................    enable_interrupts(GLOBAL);  //Allows enabled interrupts 
0089:  MOVLW  C0
008A:  IORWF  0B,F
....................     
....................    while(TRUE) 
008B:  GOTO   08B
....................      ;  //Null statement  
....................    
.................... } 
008C:  SLEEP

Configuration Fuses:
   Word  1: 3F3A   HS NOWDT NOPUT NOBROWNOUT NOLVP NOCPD NOWRT NODEBUG NOPROTECT
